target datalayout = "e-m:e-p270:32:32-p271:32:32-p272:64:64-i64:64-i128:128-f80:128-n8:16:32:64-S128"
target triple = "x86_64-pc-linux-gnu"

%struct.redisServer = type { i32, i64, ptr, ptr, ptr, i32, i32, i32, i32, i32, ptr, ptr, ptr, ptr, ptr, i32, i32, i32, i32, i64, i32, i32, i32, i32, ptr, i32, i32, [41 x i8], i32, i64, i32, i32, i32, ptr, ptr, i32, i32, i64, ptr, ptr, ptr, ptr, [2 x i32], i32, i32, i32, i32, i32, i32, [16 x ptr], i32, ptr, ptr, i32, [8 x %struct.connListener], i32, %struct.connListener, ptr, ptr, ptr, ptr, ptr, ptr, ptr, ptr, ptr, ptr, i32, ptr, i32, ptr, [3 x %struct.pause_event], [256 x i8], ptr, i64, i32, i32, [128 x i32], i32, i32, i64, i32, i32, i32, i32, i32, i64, i64, i64, i64, i64, i64, i64, i64, i64, i64, double, i64, i64, i64, i64, i64, i64, i64, i64, i64, i64, i64, i64, i64, i64, i64, i64, i64, i64, i64, i64, i64, double, i64, i64, i64, i64, i64, ptr, i64, i64, i64, %struct.malloc_stats, i64, i64, i64, i64, i64, i64, i64, i64, i64, i64, i64, i64, double, [4 x i64], i64, i64, i64, i64, [128 x i64], [128 x i64], i64, i64, [7 x %struct.anon], i64, i64, i64, i64, i64, i64, [4 x %struct.durationStats], i32, i32, i32, i32, i32, i32, i32, i32, i32, i32, i32, i32, i64, i32, i32, i32, i32, i64, i64, i32, i32, i32, i32, i32, ptr, [3 x %struct.clientBufferLimitsConfig], i32, i32, i32, ptr, i32, i32, i32, i32, i32, i32, ptr, ptr, i32, i32, i64, i64, i64, i64, i64, i32, i32, ptr, i32, i32, i64, i64, i64, i64, i64, i32, i32, i64, i32, i32, i32, i32, i32, i32, i32, i32, ptr, i32, i64, i64, i64, i64, i32, ptr, i32, ptr, i32, i32, i32, i64, i64, i64, i64, i32, i32, i32, i32, i32, i32, ptr, i32, i32, ptr, i32, i32, i32, [2 x i32], i32, %struct.redisOpArray, i32, ptr, i32, ptr, i32, i32, i32, i32, i32, i32, i32, [41 x i8], [41 x i8], i64, i64, i64, i64, i32, i32, ptr, i64, i64, %struct.replDataBuf, i64, i64, i32, i32, i32, i32, i32, i32, i32, i32, i32, i64, ptr, i64, ptr, ptr, ptr, i32, i32, ptr, ptr, i32, i32, i32, i64, i64, i64, i64, ptr, ptr, i32, ptr, i64, i32, i32, i32, i64, i32, i32, i32, i32, ptr, i32, i32, [41 x i8], i64, i32, ptr, i32, i32, i64, i64, i32, i32, i32, i32, i32, i64, [3 x i32], i32, i32, i32, [10 x i32], ptr, ptr, i32, i64, ptr, ptr, i32, i32, i32, i32, i64, i64, i64, i64, i64, i64, i64, i64, i64, i64, i32, i32, i64, i64, i32, i64, i64, i64, i64, i64, ptr, ptr, i32, ptr, i32, i32, i32, i32, i64, i64, ptr, ptr, i32, i32, i32, i32, i32, ptr, ptr, ptr, i32, i32, i32, i32, i32, i32, i32, i64, i32, i32, i64, i32, i32, i32, i32, i32, i32, i32, i64, ptr, ptr, i64, ptr, i32, %struct.aclInfo, i32, i64, i32, i32, i32, %struct.redisTLSContextConfig, ptr, ptr, ptr, ptr, ptr, i64, i32, ptr, i32, i32, i32, i64, i32, ptr }
%struct.connListener = type { [16 x i32], i32, ptr, i32, i32, ptr, ptr }
%struct.pause_event = type { i32, i64 }
%struct.malloc_stats = type { i64, i64, i64, i64, i64, i64, i64, i64, i64, i64, i64 }
%struct.anon = type { i64, i64, [16 x i64], i32 }
%struct.durationStats = type { i64, i64, i64 }
%struct.clientBufferLimitsConfig = type { i64, i64, i64 }
%struct.redisOpArray = type { ptr, i32, i32 }
%struct.replDataBuf = type { ptr, i64, i64, i64, i64 }
%struct.aclInfo = type { i64, i64, i64, i64 }
%struct.redisTLSContextConfig = type { ptr, ptr, ptr, ptr, ptr, ptr, ptr, ptr, ptr, ptr, ptr, ptr, i32, i32, i32, i32 }
%struct.redisObject = type { i32, i32, ptr }
%struct._redisSortObject = type { ptr, %union.anon }
%union.anon = type { double }

@server = external global %struct.redisServer, align 8

; Function Attrs: nounwind uwtable
define dso_local i32 @sortCompare(ptr noundef %0, ptr noundef %1) #0 {
  %3 = alloca ptr, align 8
  %4 = alloca ptr, align 8
  %5 = alloca ptr, align 8
  %6 = alloca ptr, align 8
  %7 = alloca i32, align 4
  store ptr %0, ptr %3, align 8, !tbaa !28
  store ptr %1, ptr %4, align 8, !tbaa !28
  call void @llvm.lifetime.start.p0(i64 8, ptr %5) #11
  %8 = load ptr, ptr %3, align 8, !tbaa !28
  store ptr %8, ptr %5, align 8, !tbaa !29
  call void @llvm.lifetime.start.p0(i64 8, ptr %6) #11
  %9 = load ptr, ptr %4, align 8, !tbaa !28
  store ptr %9, ptr %6, align 8, !tbaa !29
  call void @llvm.lifetime.start.p0(i64 4, ptr %7) #11
  %10 = load i32, ptr getelementptr inbounds nuw (%struct.redisServer, ptr @server, i32 0, i32 351), align 4, !tbaa !31
  %11 = icmp ne i32 %10, 0
  br i1 %11, label %40, label %12

12:                                               ; preds = %2
  %13 = load ptr, ptr %5, align 8, !tbaa !29
  %14 = getelementptr inbounds nuw %struct._redisSortObject, ptr %13, i32 0, i32 1
  %15 = load double, ptr %14, align 8, !tbaa !23
  %16 = load ptr, ptr %6, align 8, !tbaa !29
  %17 = getelementptr inbounds nuw %struct._redisSortObject, ptr %16, i32 0, i32 1
  %18 = load double, ptr %17, align 8, !tbaa !23
  %19 = fcmp ogt double %15, %18
  br i1 %19, label %20, label %21

20:                                               ; preds = %12
  store i32 1, ptr %7, align 4, !tbaa !5
  br label %39

21:                                               ; preds = %12
  %22 = load ptr, ptr %5, align 8, !tbaa !29
  %23 = getelementptr inbounds nuw %struct._redisSortObject, ptr %22, i32 0, i32 1
  %24 = load double, ptr %23, align 8, !tbaa !23
  %25 = load ptr, ptr %6, align 8, !tbaa !29
  %26 = getelementptr inbounds nuw %struct._redisSortObject, ptr %25, i32 0, i32 1
  %27 = load double, ptr %26, align 8, !tbaa !23
  %28 = fcmp olt double %24, %27
  br i1 %28, label %29, label %30

29:                                               ; preds = %21
  store i32 -1, ptr %7, align 4, !tbaa !5
  br label %38

30:                                               ; preds = %21
  %31 = load ptr, ptr %5, align 8, !tbaa !29
  %32 = getelementptr inbounds nuw %struct._redisSortObject, ptr %31, i32 0, i32 0
  %33 = load ptr, ptr %32, align 8, !tbaa !57
  %34 = load ptr, ptr %6, align 8, !tbaa !29
  %35 = getelementptr inbounds nuw %struct._redisSortObject, ptr %34, i32 0, i32 0
  %36 = load ptr, ptr %35, align 8, !tbaa !57
  %37 = call i32 @compareStringObjects(ptr noundef %33, ptr noundef %36)
  store i32 %37, ptr %7, align 4, !tbaa !5
  br label %38

38:                                               ; preds = %30, %29
  br label %39

39:                                               ; preds = %38, %20
  br label %117

40:                                               ; preds = %2
  %41 = load i32, ptr getelementptr inbounds nuw (%struct.redisServer, ptr @server, i32 0, i32 352), align 8, !tbaa !59
  %42 = icmp ne i32 %41, 0
  br i1 %42, label %43, label %96

43:                                               ; preds = %40
  %44 = load ptr, ptr %5, align 8, !tbaa !29
  %45 = getelementptr inbounds nuw %struct._redisSortObject, ptr %44, i32 0, i32 1
  %46 = load ptr, ptr %45, align 8, !tbaa !23
  %47 = icmp ne ptr %46, null
  br i1 %47, label %48, label %53

48:                                               ; preds = %43
  %49 = load ptr, ptr %6, align 8, !tbaa !29
  %50 = getelementptr inbounds nuw %struct._redisSortObject, ptr %49, i32 0, i32 1
  %51 = load ptr, ptr %50, align 8, !tbaa !23
  %52 = icmp ne ptr %51, null
  br i1 %52, label %71, label %53

53:                                               ; preds = %48, %43
  %54 = load ptr, ptr %5, align 8, !tbaa !29
  %55 = getelementptr inbounds nuw %struct._redisSortObject, ptr %54, i32 0, i32 1
  %56 = load ptr, ptr %55, align 8, !tbaa !23
  %57 = load ptr, ptr %6, align 8, !tbaa !29
  %58 = getelementptr inbounds nuw %struct._redisSortObject, ptr %57, i32 0, i32 1
  %59 = load ptr, ptr %58, align 8, !tbaa !23
  %60 = icmp eq ptr %56, %59
  br i1 %60, label %61, label %62

61:                                               ; preds = %53
  store i32 0, ptr %7, align 4, !tbaa !5
  br label %70

62:                                               ; preds = %53
  %63 = load ptr, ptr %5, align 8, !tbaa !29
  %64 = getelementptr inbounds nuw %struct._redisSortObject, ptr %63, i32 0, i32 1
  %65 = load ptr, ptr %64, align 8, !tbaa !23
  %66 = icmp eq ptr %65, null
  br i1 %66, label %67, label %68

67:                                               ; preds = %62
  store i32 -1, ptr %7, align 4, !tbaa !5
  br label %69

68:                                               ; preds = %62
  store i32 1, ptr %7, align 4, !tbaa !5
  br label %69

69:                                               ; preds = %68, %67
  br label %70

70:                                               ; preds = %69, %61
  br label %95

71:                                               ; preds = %48
  %72 = load i32, ptr getelementptr inbounds nuw (%struct.redisServer, ptr @server, i32 0, i32 353), align 4, !tbaa !60
  %73 = icmp ne i32 %72, 0
  br i1 %73, label %74, label %82

74:                                               ; preds = %71
  %75 = load ptr, ptr %5, align 8, !tbaa !29
  %76 = getelementptr inbounds nuw %struct._redisSortObject, ptr %75, i32 0, i32 1
  %77 = load ptr, ptr %76, align 8, !tbaa !23
  %78 = load ptr, ptr %6, align 8, !tbaa !29
  %79 = getelementptr inbounds nuw %struct._redisSortObject, ptr %78, i32 0, i32 1
  %80 = load ptr, ptr %79, align 8, !tbaa !23
  %81 = call i32 @compareStringObjects(ptr noundef %77, ptr noundef %80)
  store i32 %81, ptr %7, align 4, !tbaa !5
  br label %94

82:                                               ; preds = %71
  %83 = load ptr, ptr %5, align 8, !tbaa !29
  %84 = getelementptr inbounds nuw %struct._redisSortObject, ptr %83, i32 0, i32 1
  %85 = load ptr, ptr %84, align 8, !tbaa !23
  %86 = getelementptr inbounds nuw %struct.redisObject, ptr %85, i32 0, i32 2
  %87 = load ptr, ptr %86, align 8, !tbaa !19
  %88 = load ptr, ptr %6, align 8, !tbaa !29
  %89 = getelementptr inbounds nuw %struct._redisSortObject, ptr %88, i32 0, i32 1
  %90 = load ptr, ptr %89, align 8, !tbaa !23
  %91 = getelementptr inbounds nuw %struct.redisObject, ptr %90, i32 0, i32 2
  %92 = load ptr, ptr %91, align 8, !tbaa !19
  %93 = call i32 @strcoll(ptr noundef %87, ptr noundef %92) #13
  store i32 %93, ptr %7, align 4, !tbaa !5
  br label %94

94:                                               ; preds = %82, %74
  br label %95

95:                                               ; preds = %94, %70
  br label %116

96:                                               ; preds = %40
  %97 = load i32, ptr getelementptr inbounds nuw (%struct.redisServer, ptr @server, i32 0, i32 353), align 4, !tbaa !60
  %98 = icmp ne i32 %97, 0
  br i1 %98, label %99, label %107

99:                                               ; preds = %96
  %100 = load ptr, ptr %5, align 8, !tbaa !29
  %101 = getelementptr inbounds nuw %struct._redisSortObject, ptr %100, i32 0, i32 0
  %102 = load ptr, ptr %101, align 8, !tbaa !57
  %103 = load ptr, ptr %6, align 8, !tbaa !29
  %104 = getelementptr inbounds nuw %struct._redisSortObject, ptr %103, i32 0, i32 0
  %105 = load ptr, ptr %104, align 8, !tbaa !57
  %106 = call i32 @compareStringObjects(ptr noundef %102, ptr noundef %105)
  store i32 %106, ptr %7, align 4, !tbaa !5
  br label %115

107:                                              ; preds = %96
  %108 = load ptr, ptr %5, align 8, !tbaa !29
  %109 = getelementptr inbounds nuw %struct._redisSortObject, ptr %108, i32 0, i32 0
  %110 = load ptr, ptr %109, align 8, !tbaa !57
  %111 = load ptr, ptr %6, align 8, !tbaa !29
  %112 = getelementptr inbounds nuw %struct._redisSortObject, ptr %111, i32 0, i32 0
  %113 = load ptr, ptr %112, align 8, !tbaa !57
  %114 = call i32 @collateStringObjects(ptr noundef %110, ptr noundef %113)
  store i32 %114, ptr %7, align 4, !tbaa !5
  br label %115

115:                                              ; preds = %107, %99
  br label %116

116:                                              ; preds = %115, %95
  br label %117

117:                                              ; preds = %116, %39
  %118 = load i32, ptr getelementptr inbounds nuw (%struct.redisServer, ptr @server, i32 0, i32 350), align 8, !tbaa !61
  %119 = icmp ne i32 %118, 0
  br i1 %119, label %120, label %123

120:                                              ; preds = %117
  %121 = load i32, ptr %7, align 4, !tbaa !5
  %122 = sub nsw i32 0, %121
  br label %125

123:                                              ; preds = %117
  %124 = load i32, ptr %7, align 4, !tbaa !5
  br label %125

125:                                              ; preds = %123, %120
  %126 = phi i32 [ %122, %120 ], [ %124, %123 ]
  call void @llvm.lifetime.end.p0(i64 4, ptr %7) #11
  call void @llvm.lifetime.end.p0(i64 8, ptr %6) #11
  call void @llvm.lifetime.end.p0(i64 8, ptr %5) #11
  ret i32 %126
}