; Function Attrs: nounwind uwtable
define dso_local i32 @sortCompare(ptr noundef readonly captures(none) %0, ptr noundef readonly captures(none) %1) #0 {
  %3 = load i32, ptr getelementptr inbounds nuw (i8, ptr @server, i64 7684), align 4, !tbaa !22
  %.not = icmp eq i32 %3, 0
  br i1 %.not, label %4, label %16

4:                                                ; preds = %2
  %5 = getelementptr inbounds nuw i8, ptr %0, i64 8
  %6 = load double, ptr %5, align 8, !tbaa !15
  %7 = getelementptr inbounds nuw i8, ptr %1, i64 8
  %8 = load double, ptr %7, align 8, !tbaa !15
  %9 = fcmp ogt double %6, %8
  br i1 %9, label %42, label %10

10:                                               ; preds = %4
  %11 = fcmp olt double %6, %8
  br i1 %11, label %42, label %12

12:                                               ; preds = %10
  %13 = load ptr, ptr %0, align 8, !tbaa !50
  %14 = load ptr, ptr %1, align 8, !tbaa !50
  %15 = tail call i32 @compareStringObjects(ptr noundef %13, ptr noundef %14) #12
  br label %42

16:                                               ; preds = %2
  %17 = load i32, ptr getelementptr inbounds nuw (i8, ptr @server, i64 7688), align 8, !tbaa !52
  %.not27 = icmp eq i32 %17, 0
  br i1 %.not27, label %34, label %18

18:                                               ; preds = %16
  %19 = getelementptr inbounds nuw i8, ptr %0, i64 8
  %20 = load ptr, ptr %19, align 8, !tbaa !15
  %.not29 = icmp eq ptr %20, null
  %.phi.trans.insert = getelementptr inbounds nuw i8, ptr %1, i64 8
  %.pre = load ptr, ptr %.phi.trans.insert, align 8, !tbaa !15
  br i1 %.not29, label %._crit_edge, label %21

21:                                               ; preds = %18
  %.not30 = icmp eq ptr %.pre, null
  br i1 %.not30, label %._crit_edge, label %24

._crit_edge:                                      ; preds = %18, %21
  %22 = phi ptr [ null, %21 ], [ %.pre, %18 ]
  %. = phi i32 [ 1, %21 ], [ -1, %18 ]
  %23 = icmp eq ptr %20, %22
  %spec.select = select i1 %23, i32 0, i32 %.
  br label %42

24:                                               ; preds = %21
  %25 = load i32, ptr getelementptr inbounds nuw (i8, ptr @server, i64 7692), align 4, !tbaa !53
  %.not31 = icmp eq i32 %25, 0
  br i1 %.not31, label %28, label %26

26:                                               ; preds = %24
  %27 = tail call i32 @compareStringObjects(ptr noundef nonnull %20, ptr noundef nonnull %.pre) #12
  br label %42

28:                                               ; preds = %24
  %29 = getelementptr inbounds nuw i8, ptr %20, i64 8
  %30 = load ptr, ptr %29, align 8, !tbaa !13
  %31 = getelementptr inbounds nuw i8, ptr %.pre, i64 8
  %32 = load ptr, ptr %31, align 8, !tbaa !13
  %33 = tail call i32 @strcoll(ptr noundef %30, ptr noundef %32) #13
  br label %42

34:                                               ; preds = %16
  %35 = load i32, ptr getelementptr inbounds nuw (i8, ptr @server, i64 7692), align 4, !tbaa !53
  %.not28 = icmp eq i32 %35, 0
  %36 = load ptr, ptr %0, align 8, !tbaa !50
  %37 = load ptr, ptr %1, align 8, !tbaa !50
  br i1 %.not28, label %40, label %38

38:                                               ; preds = %34
  %39 = tail call i32 @compareStringObjects(ptr noundef %36, ptr noundef %37) #12
  br label %42

40:                                               ; preds = %34
  %41 = tail call i32 @collateStringObjects(ptr noundef %36, ptr noundef %37) #12
  br label %42

42:                                               ; preds = %._crit_edge, %10, %4, %26, %28, %40, %38, %12
  %.0 = phi i32 [ %27, %26 ], [ %33, %28 ], [ %39, %38 ], [ %41, %40 ], [ %15, %12 ], [ 1, %4 ], [ -1, %10 ], [ %spec.select, %._crit_edge ]
  %43 = load i32, ptr getelementptr inbounds nuw (i8, ptr @server, i64 7680), align 8, !tbaa !54
  %.not32 = icmp eq i32 %43, 0
  %44 = sub nsw i32 0, %.0
  %45 = select i1 %.not32, i32 %.0, i32 %44
  ret i32 %45
}